target datalayout = "e-m:e-p270:32:32-p271:32:32-p272:64:64-i64:64-i128:128-f80:128-n8:16:32:64-S128"
target triple = "x86_64-pc-linux-gnu"

@.str = private unnamed_addr constant [9 x i8] c"No error\00", align 1
@.str.101 = private unnamed_addr constant [48 x i8] c"An invalid CURLU pointer was passed as argument\00", align 1
@.str.102 = private unnamed_addr constant [50 x i8] c"An invalid 'part' argument was passed as argument\00", align 1
@.str.103 = private unnamed_addr constant [34 x i8] c"Malformed input to a URL function\00", align 1
@.str.104 = private unnamed_addr constant [57 x i8] c"Port number was not a decimal number between 0 and 65535\00", align 1
@.str.105 = private unnamed_addr constant [23 x i8] c"Unsupported URL scheme\00", align 1
@.str.106 = private unnamed_addr constant [62 x i8] c"URL decode error, most likely because of rubbish in the input\00", align 1
@.str.107 = private unnamed_addr constant [25 x i8] c"A memory function failed\00", align 1
@.str.108 = private unnamed_addr constant [50 x i8] c"Credentials was passed in the URL when prohibited\00", align 1
@.str.109 = private unnamed_addr constant [52 x i8] c"An unknown part ID was passed to a URL API function\00", align 1
@.str.110 = private unnamed_addr constant [26 x i8] c"No scheme part in the URL\00", align 1
@.str.111 = private unnamed_addr constant [24 x i8] c"No user part in the URL\00", align 1
@.str.112 = private unnamed_addr constant [28 x i8] c"No password part in the URL\00", align 1
@.str.113 = private unnamed_addr constant [27 x i8] c"No options part in the URL\00", align 1
@.str.114 = private unnamed_addr constant [24 x i8] c"No host part in the URL\00", align 1
@.str.115 = private unnamed_addr constant [24 x i8] c"No port part in the URL\00", align 1
@.str.116 = private unnamed_addr constant [25 x i8] c"No query part in the URL\00", align 1
@.str.117 = private unnamed_addr constant [28 x i8] c"No fragment part in the URL\00", align 1
@.str.118 = private unnamed_addr constant [26 x i8] c"No zoneid part in the URL\00", align 1
@.str.119 = private unnamed_addr constant [15 x i8] c"Bad login part\00", align 1
@.str.120 = private unnamed_addr constant [17 x i8] c"Bad IPv6 address\00", align 1
@.str.121 = private unnamed_addr constant [13 x i8] c"Bad hostname\00", align 1
@.str.122 = private unnamed_addr constant [16 x i8] c"Bad file:// URL\00", align 1
@.str.123 = private unnamed_addr constant [47 x i8] c"Unsupported number of slashes following scheme\00", align 1
@.str.124 = private unnamed_addr constant [11 x i8] c"Bad scheme\00", align 1
@.str.125 = private unnamed_addr constant [9 x i8] c"Bad path\00", align 1
@.str.126 = private unnamed_addr constant [13 x i8] c"Bad fragment\00", align 1
@.str.127 = private unnamed_addr constant [10 x i8] c"Bad query\00", align 1
@.str.128 = private unnamed_addr constant [13 x i8] c"Bad password\00", align 1
@.str.129 = private unnamed_addr constant [9 x i8] c"Bad user\00", align 1
@.str.130 = private unnamed_addr constant [26 x i8] c"libcurl lacks IDN support\00", align 1
@.str.131 = private unnamed_addr constant [45 x i8] c"A value or data field is larger than allowed\00", align 1
@.str.132 = private unnamed_addr constant [18 x i8] c"CURLUcode unknown\00", align 1

; Function Attrs: nounwind uwtable
define ptr @curl_url_strerror(i32 noundef %0) #0 {
  %2 = alloca ptr, align 8
  %3 = alloca i32, align 4
  store i32 %0, ptr %3, align 4, !tbaa !3
  %4 = load i32, ptr %3, align 4, !tbaa !3
  switch i32 %4, label %37 [
    i32 0, label %5
    i32 1, label %6
    i32 2, label %7
    i32 3, label %8
    i32 4, label %9
    i32 5, label %10
    i32 6, label %11
    i32 7, label %12
    i32 8, label %13
    i32 9, label %14
    i32 10, label %15
    i32 11, label %16
    i32 12, label %17
    i32 13, label %18
    i32 14, label %19
    i32 15, label %20
    i32 16, label %21
    i32 17, label %22
    i32 18, label %23
    i32 23, label %24
    i32 22, label %25
    i32 21, label %26
    i32 19, label %27
    i32 28, label %28
    i32 27, label %29
    i32 25, label %30
    i32 20, label %31
    i32 26, label %32
    i32 24, label %33
    i32 29, label %34
    i32 30, label %35
    i32 31, label %36
    i32 32, label %37
  ]

5:                                                ; preds = %1
  store ptr @.str, ptr %2, align 8
  br label %38

6:                                                ; preds = %1
  store ptr @.str.101, ptr %2, align 8
  br label %38

7:                                                ; preds = %1
  store ptr @.str.102, ptr %2, align 8
  br label %38

8:                                                ; preds = %1
  store ptr @.str.103, ptr %2, align 8
  br label %38

9:                                                ; preds = %1
  store ptr @.str.104, ptr %2, align 8
  br label %38

10:                                               ; preds = %1
  store ptr @.str.105, ptr %2, align 8
  br label %38

11:                                               ; preds = %1
  store ptr @.str.106, ptr %2, align 8
  br label %38

12:                                               ; preds = %1
  store ptr @.str.107, ptr %2, align 8
  br label %38

13:                                               ; preds = %1
  store ptr @.str.108, ptr %2, align 8
  br label %38

14:                                               ; preds = %1
  store ptr @.str.109, ptr %2, align 8
  br label %38

15:                                               ; preds = %1
  store ptr @.str.110, ptr %2, align 8
  br label %38

16:                                               ; preds = %1
  store ptr @.str.111, ptr %2, align 8
  br label %38

17:                                               ; preds = %1
  store ptr @.str.112, ptr %2, align 8
  br label %38

18:                                               ; preds = %1
  store ptr @.str.113, ptr %2, align 8
  br label %38

19:                                               ; preds = %1
  store ptr @.str.114, ptr %2, align 8
  br label %38

20:                                               ; preds = %1
  store ptr @.str.115, ptr %2, align 8
  br label %38

21:                                               ; preds = %1
  store ptr @.str.116, ptr %2, align 8
  br label %38

22:                                               ; preds = %1
  store ptr @.str.117, ptr %2, align 8
  br label %38

23:                                               ; preds = %1
  store ptr @.str.118, ptr %2, align 8
  br label %38

24:                                               ; preds = %1
  store ptr @.str.119, ptr %2, align 8
  br label %38

25:                                               ; preds = %1
  store ptr @.str.120, ptr %2, align 8
  br label %38

26:                                               ; preds = %1
  store ptr @.str.121, ptr %2, align 8
  br label %38

27:                                               ; preds = %1
  store ptr @.str.122, ptr %2, align 8
  br label %38

28:                                               ; preds = %1
  store ptr @.str.123, ptr %2, align 8
  br label %38

29:                                               ; preds = %1
  store ptr @.str.124, ptr %2, align 8
  br label %38

30:                                               ; preds = %1
  store ptr @.str.125, ptr %2, align 8
  br label %38

31:                                               ; preds = %1
  store ptr @.str.126, ptr %2, align 8
  br label %38

32:                                               ; preds = %1
  store ptr @.str.127, ptr %2, align 8
  br label %38

33:                                               ; preds = %1
  store ptr @.str.128, ptr %2, align 8
  br label %38

34:                                               ; preds = %1
  store ptr @.str.129, ptr %2, align 8
  br label %38

35:                                               ; preds = %1
  store ptr @.str.130, ptr %2, align 8
  br label %38

36:                                               ; preds = %1
  store ptr @.str.131, ptr %2, align 8
  br label %38

37:                                               ; preds = %1, %1
  store ptr @.str.132, ptr %2, align 8
  br label %38

38:                                               ; preds = %37, %36, %35, %34, %33, %32, %31, %30, %29, %28, %27, %26, %25, %24, %23, %22, %21, %20, %19, %18, %17, %16, %15, %14, %13, %12, %11, %10, %9, %8, %7, %6, %5
  %39 = load ptr, ptr %2, align 8
  ret ptr %39
}